; Function Attrs: mustprogress uwtable
define void @_ZN6casadi7XmlNode4readERKNSt7__cxx1112basic_stringIcSt11char_traitsIcESaIcEEEPd(ptr noundef nonnull align 8 dereferenceable(32) %0, ptr noundef %1) local_unnamed_addr #5 align 2 personality ptr @__gxx_personality_v0 {
  %3 = alloca %"class.std::__cxx11::basic_istringstream", align 8
  call void @llvm.lifetime.start.p0(i64 384, ptr nonnull %3) #23
  call void @_ZNSt7__cxx1119basic_istringstreamIcSt11char_traitsIcESaIcEEC1ERKNS_12basic_stringIcS2_S3_EESt13_Ios_Openmode(ptr noundef nonnull align 8 dereferenceable(120) %3, ptr noundef nonnull align 8 dereferenceable(32) %0, i32 noundef 8)
  %4 = invoke noundef nonnull align 8 dereferenceable(16) ptr @_ZNSi10_M_extractIdEERSiRT_(ptr noundef nonnull align 8 dereferenceable(16) %3, ptr noundef nonnull align 8 dereferenceable(8) %1)
          to label %_ZNSirsERd.exit unwind label %28

_ZNSirsERd.exit:                                  ; preds = %2
  %5 = load ptr, ptr @_ZTTNSt7__cxx1119basic_istringstreamIcSt11char_traitsIcESaIcEEE, align 8
  store ptr %5, ptr %3, align 8, !tbaa !31
  %6 = load ptr, ptr getelementptr inbounds nuw (i8, ptr @_ZTTNSt7__cxx1119basic_istringstreamIcSt11char_traitsIcESaIcEEE, i64 24), align 8
  %7 = getelementptr i8, ptr %5, i64 -24
  %8 = load i64, ptr %7, align 8
  %9 = getelementptr inbounds i8, ptr %3, i64 %8
  store ptr %6, ptr %9, align 8, !tbaa !31
  %10 = getelementptr inbounds nuw i8, ptr %3, i64 16
  store ptr getelementptr inbounds nuw inrange(-16, 112) (i8, ptr @_ZTVNSt7__cxx1115basic_stringbufIcSt11char_traitsIcESaIcEEE, i64 16), ptr %10, align 8, !tbaa !31
  %11 = getelementptr inbounds nuw i8, ptr %3, i64 88
  %12 = load ptr, ptr %11, align 8, !tbaa !16
  %13 = getelementptr inbounds nuw i8, ptr %3, i64 104
  %14 = icmp eq ptr %12, %13
  br i1 %14, label %_ZNKSt7__cxx1112basic_stringIcSt11char_traitsIcESaIcEE11_M_is_localEv.exit.thread.i.i.i.i.i, label %_ZNKSt7__cxx1112basic_stringIcSt11char_traitsIcESaIcEE11_M_is_localEv.exit.i.i.i.i.i

_ZNKSt7__cxx1112basic_stringIcSt11char_traitsIcESaIcEE11_M_is_localEv.exit.thread.i.i.i.i.i: ; preds = %_ZNSirsERd.exit
  %15 = getelementptr inbounds nuw i8, ptr %3, i64 96
  %16 = load i64, ptr %15, align 8, !tbaa !12
  %17 = icmp ult i64 %16, 16
  call void @llvm.assume(i1 %17)
  br label %_ZNSt7__cxx1119basic_istringstreamIcSt11char_traitsIcESaIcEED1Ev.exit

_ZNKSt7__cxx1112basic_stringIcSt11char_traitsIcESaIcEE11_M_is_localEv.exit.i.i.i.i.i: ; preds = %_ZNSirsERd.exit
  %18 = load i64, ptr %13, align 8, !tbaa !26
  %19 = add i64 %18, 1
  call void @_ZdlPvm(ptr noundef %12, i64 noundef %19) #25
  br label %_ZNSt7__cxx1119basic_istringstreamIcSt11char_traitsIcESaIcEED1Ev.exit

_ZNSt7__cxx1119basic_istringstreamIcSt11char_traitsIcESaIcEED1Ev.exit: ; preds = %_ZNKSt7__cxx1112basic_stringIcSt11char_traitsIcESaIcEE11_M_is_localEv.exit.thread.i.i.i.i.i, %_ZNKSt7__cxx1112basic_stringIcSt11char_traitsIcESaIcEE11_M_is_localEv.exit.i.i.i.i.i
  store ptr getelementptr inbounds nuw inrange(-16, 112) (i8, ptr @_ZTVSt15basic_streambufIcSt11char_traitsIcEE, i64 16), ptr %10, align 8, !tbaa !31
  %20 = getelementptr inbounds nuw i8, ptr %3, i64 72
  call void @_ZNSt6localeD1Ev(ptr noundef nonnull align 8 dereferenceable(8) %20) #23
  %21 = load ptr, ptr getelementptr inbounds nuw (i8, ptr @_ZTTNSt7__cxx1119basic_istringstreamIcSt11char_traitsIcESaIcEEE, i64 8), align 8
  store ptr %21, ptr %3, align 8, !tbaa !31
  %22 = load ptr, ptr getelementptr inbounds nuw (i8, ptr @_ZTTNSt7__cxx1119basic_istringstreamIcSt11char_traitsIcESaIcEEE, i64 16), align 8
  %23 = getelementptr i8, ptr %21, i64 -24
  %24 = load i64, ptr %23, align 8
  %25 = getelementptr inbounds i8, ptr %3, i64 %24
  store ptr %22, ptr %25, align 8, !tbaa !31
  %26 = getelementptr inbounds nuw i8, ptr %3, i64 8
  store i64 0, ptr %26, align 8, !tbaa !59
  %27 = getelementptr inbounds nuw i8, ptr %3, i64 120
  call void @_ZNSt8ios_baseD2Ev(ptr noundef nonnull align 8 dereferenceable(264) %27) #23
  call void @llvm.lifetime.end.p0(i64 384, ptr nonnull %3) #23
  ret void

28:                                               ; preds = %2
  %29 = landingpad { ptr, i32 }
          cleanup
  call void @_ZNSt7__cxx1119basic_istringstreamIcSt11char_traitsIcESaIcEED1Ev(ptr noundef nonnull align 8 dereferenceable(120) %3) #23
  call void @llvm.lifetime.end.p0(i64 384, ptr nonnull %3) #23
  resume { ptr, i32 } %29
}